target datalayout = "e-m:e-p270:32:32-p271:32:32-p272:64:64-i64:64-i128:128-f80:128-n8:16:32:64-S128"
target triple = "x86_64-pc-linux-gnu"

@SDL_SubsystemRefCount = internal global [32 x i8] zeroinitializer, align 16

; Function Attrs: alwaysinline nounwind uwtable
define internal i32 @SDL_MostSignificantBitIndex32(i32 noundef %0) #5 {
  %2 = alloca i32, align 4
  %3 = alloca i32, align 4
  store i32 %0, ptr %3, align 4
  %4 = load i32, ptr %3, align 4
  %5 = icmp eq i32 %4, 0
  br i1 %5, label %6, label %7

6:                                                ; preds = %1
  store i32 -1, ptr %2, align 4
  br label %11

7:                                                ; preds = %1
  %8 = load i32, ptr %3, align 4
  %9 = call i32 @llvm.ctlz.i32(i32 %8, i1 true)
  %10 = sub nsw i32 31, %9
  store i32 %10, ptr %2, align 4
  br label %11

11:                                               ; preds = %7, %6
  %12 = load i32, ptr %2, align 4
  ret i32 %12
}

; Function Attrs: alwaysinline nounwind uwtable
define internal zeroext i1 @SDL_HasExactlyOneBitSet32(i32 noundef %0) #5 {
  %2 = alloca i1, align 1
  %3 = alloca i32, align 4
  store i32 %0, ptr %3, align 4
  %4 = load i32, ptr %3, align 4
  %5 = icmp ne i32 %4, 0
  br i1 %5, label %6, label %13

6:                                                ; preds = %1
  %7 = load i32, ptr %3, align 4
  %8 = load i32, ptr %3, align 4
  %9 = sub i32 %8, 1
  %10 = and i32 %7, %9
  %11 = icmp ne i32 %10, 0
  br i1 %11, label %13, label %12

12:                                               ; preds = %6
  store i1 true, ptr %2, align 1
  br label %14

13:                                               ; preds = %6, %1
  store i1 false, ptr %2, align 1
  br label %14

14:                                               ; preds = %13, %12
  %15 = load i1, ptr %2, align 1
  ret i1 %15
}

; Function Attrs: nounwind uwtable
define hidden i32 @SDL_WasInit_REAL(i32 noundef %0) #2 {
  %2 = alloca i32, align 4
  %3 = alloca i32, align 4
  %4 = alloca i32, align 4
  %5 = alloca i32, align 4
  %6 = alloca i32, align 4
  %7 = alloca i32, align 4
  %8 = alloca i32, align 4
  store i32 %0, ptr %3, align 4
  call void @llvm.lifetime.start.p0(i64 4, ptr %4) #10
  call void @llvm.lifetime.start.p0(i64 4, ptr %5) #10
  store i32 32, ptr %5, align 4
  call void @llvm.lifetime.start.p0(i64 4, ptr %6) #10
  store i32 0, ptr %6, align 4
  %9 = load i32, ptr %3, align 4
  %10 = call zeroext i1 @SDL_HasExactlyOneBitSet32(i32 noundef %9)
  br i1 %10, label %11, label %25

11:                                               ; preds = %1
  call void @llvm.lifetime.start.p0(i64 4, ptr %7) #10
  %12 = load i32, ptr %3, align 4
  %13 = call i32 @SDL_MostSignificantBitIndex32(i32 noundef %12)
  store i32 %13, ptr %7, align 4
  %14 = load i32, ptr %7, align 4
  %15 = sext i32 %14 to i64
  %16 = getelementptr inbounds [32 x i8], ptr @SDL_SubsystemRefCount, i64 0, i64 %15
  %17 = load i8, ptr %16, align 1
  %18 = zext i8 %17 to i32
  %19 = icmp ne i32 %18, 0
  br i1 %19, label %20, label %22

20:                                               ; preds = %11
  %21 = load i32, ptr %3, align 4
  br label %23

22:                                               ; preds = %11
  br label %23

23:                                               ; preds = %22, %20
  %24 = phi i32 [ %21, %20 ], [ 0, %22 ]
  store i32 %24, ptr %2, align 4
  store i32 1, ptr %8, align 4
  call void @llvm.lifetime.end.p0(i64 4, ptr %7) #10
  br label %71

25:                                               ; preds = %1
  %26 = load i32, ptr %3, align 4
  %27 = icmp ne i32 %26, 0
  br i1 %27, label %29, label %28

28:                                               ; preds = %25
  store i32 -1, ptr %3, align 4
  br label %29

29:                                               ; preds = %28, %25
  %30 = load i32, ptr %5, align 4
  %31 = load i32, ptr %3, align 4
  %32 = call i32 @SDL_MostSignificantBitIndex32(i32 noundef %31)
  %33 = add nsw i32 %32, 1
  %34 = icmp slt i32 %30, %33
  br i1 %34, label %35, label %37

35:                                               ; preds = %29
  %36 = load i32, ptr %5, align 4
  br label %41

37:                                               ; preds = %29
  %38 = load i32, ptr %3, align 4
  %39 = call i32 @SDL_MostSignificantBitIndex32(i32 noundef %38)
  %40 = add nsw i32 %39, 1
  br label %41

41:                                               ; preds = %37, %35
  %42 = phi i32 [ %36, %35 ], [ %40, %37 ]
  store i32 %42, ptr %5, align 4
  store i32 0, ptr %4, align 4
  br label %43

43:                                               ; preds = %66, %41
  %44 = load i32, ptr %4, align 4
  %45 = load i32, ptr %5, align 4
  %46 = icmp slt i32 %44, %45
  br i1 %46, label %47, label %69

47:                                               ; preds = %43
  %48 = load i32, ptr %3, align 4
  %49 = and i32 %48, 1
  %50 = icmp ne i32 %49, 0
  br i1 %50, label %51, label %63

51:                                               ; preds = %47
  %52 = load i32, ptr %4, align 4
  %53 = sext i32 %52 to i64
  %54 = getelementptr inbounds [32 x i8], ptr @SDL_SubsystemRefCount, i64 0, i64 %53
  %55 = load i8, ptr %54, align 1
  %56 = zext i8 %55 to i32
  %57 = icmp sgt i32 %56, 0
  br i1 %57, label %58, label %63

58:                                               ; preds = %51
  %59 = load i32, ptr %4, align 4
  %60 = shl i32 1, %59
  %61 = load i32, ptr %6, align 4
  %62 = or i32 %61, %60
  store i32 %62, ptr %6, align 4
  br label %63

63:                                               ; preds = %58, %51, %47
  %64 = load i32, ptr %3, align 4
  %65 = lshr i32 %64, 1
  store i32 %65, ptr %3, align 4
  br label %66

66:                                               ; preds = %63
  %67 = load i32, ptr %4, align 4
  %68 = add nsw i32 %67, 1
  store i32 %68, ptr %4, align 4
  br label %43, !llvm.loop !5

69:                                               ; preds = %43
  %70 = load i32, ptr %6, align 4
  store i32 %70, ptr %2, align 4
  store i32 1, ptr %8, align 4
  br label %71

71:                                               ; preds = %69, %23
  call void @llvm.lifetime.end.p0(i64 4, ptr %6) #10
  call void @llvm.lifetime.end.p0(i64 4, ptr %5) #10
  call void @llvm.lifetime.end.p0(i64 4, ptr %4) #10
  %72 = load i32, ptr %2, align 4
  ret i32 %72
}