; Function Attrs: nofree norecurse nosync nounwind memory(read, argmem: none, inaccessiblemem: none) uwtable
define hidden i32 @SDL_WasInit_REAL(i32 noundef %0) local_unnamed_addr #4 {
  %2 = tail call range(i32 0, 33) i32 @llvm.ctpop.i32(i32 %0)
  %or.cond.i = icmp eq i32 %2, 1
  br i1 %or.cond.i, label %3, label %10

3:                                                ; preds = %1
  %4 = tail call range(i32 0, 33) i32 @llvm.ctlz.i32(i32 %0, i1 true)
  %5 = xor i32 %4, 31
  %6 = zext nneg i32 %5 to i64
  %7 = getelementptr inbounds nuw [32 x i8], ptr @SDL_SubsystemRefCount, i64 0, i64 %6
  %8 = load i8, ptr %7, align 1
  %.not25 = icmp eq i8 %8, 0
  %9 = select i1 %.not25, i32 0, i32 %0
  br label %.loopexit

10:                                               ; preds = %1
  %.not = icmp eq i32 %0, 0
  %spec.store.select = select i1 %.not, i32 -1, i32 %0
  %11 = tail call range(i32 0, 33) i32 @llvm.ctlz.i32(i32 %spec.store.select, i1 true)
  %12 = sub nuw nsw i32 32, %11
  %wide.trip.count = zext nneg i32 %12 to i64
  br label %13

13:                                               ; preds = %10, %22
  %indvars.iv = phi i64 [ 0, %10 ], [ %indvars.iv.next, %22 ]
  %.01930 = phi i32 [ 0, %10 ], [ %.1, %22 ]
  %.02128 = phi i32 [ %spec.store.select, %10 ], [ %23, %22 ]
  %14 = and i32 %.02128, 1
  %.not23 = icmp eq i32 %14, 0
  br i1 %.not23, label %22, label %15

15:                                               ; preds = %13
  %16 = getelementptr inbounds nuw [32 x i8], ptr @SDL_SubsystemRefCount, i64 0, i64 %indvars.iv
  %17 = load i8, ptr %16, align 1
  %.not24 = icmp eq i8 %17, 0
  br i1 %.not24, label %22, label %18

18:                                               ; preds = %15
  %19 = trunc nuw nsw i64 %indvars.iv to i32
  %20 = shl nuw i32 1, %19
  %21 = or i32 %.01930, %20
  br label %22

22:                                               ; preds = %18, %15, %13
  %.1 = phi i32 [ %21, %18 ], [ %.01930, %15 ], [ %.01930, %13 ]
  %23 = lshr i32 %.02128, 1
  %indvars.iv.next = add nuw nsw i64 %indvars.iv, 1
  %exitcond.not = icmp eq i64 %indvars.iv.next, %wide.trip.count
  br i1 %exitcond.not, label %.loopexit, label %13, !llvm.loop !3

.loopexit:                                        ; preds = %22, %3
  %.0 = phi i32 [ %9, %3 ], [ %.1, %22 ]
  ret i32 %.0
}